; Function Attrs: nounwind uwtable
define hidden void @SSL_ECDH_CTX_cleanup(ptr noundef %0) local_unnamed_addr #3 {
  %2 = load ptr, ptr %0, align 8, !tbaa !18
  %3 = icmp eq ptr %2, null
  br i1 %3, label %7, label %4

4:                                                ; preds = %1
  %5 = getelementptr inbounds nuw i8, ptr %2, i64 16
  %6 = load ptr, ptr %5, align 8, !tbaa !21
  tail call void %6(ptr noundef nonnull %0) #8
  tail call void @llvm.memset.p0.i64(ptr noundef nonnull align 8 dereferenceable(16) %0, i8 0, i64 16, i1 false)
  br label %7

7:                                                ; preds = %1, %4
  ret void
}